#include <math.h>
#include <stdio.h>
#include <stdlib.h>
#include <string.h>

main()
{
 int n;
 scanf("%d",&n);
 int*p;
 p=(int*)malloc(n*sizeof(int));
 int i,j;
 for(i=0;i<n;i++)
 scanf("%d",&p[i]); 
 printf("%d",p[0]); 
 for(i=1;i<n;i++)  
 {
  for(j=0;j<i;j++)
  {
   if(p[i]==p[j])
   break;
  }
  if(j==i)
  printf(" %d",p[i]);
 } 
 getchar();
 getchar();
 getchar();
 getchar();
 getchar();
 getchar();
}
